; Function Attrs: nounwind uwtable
define ptr @l_Lean_Elab_mkDeclName___rarg___lambda__3(ptr noundef readonly captures(none) %0, ptr noundef %1, ptr noundef %2, ptr noundef %3, ptr noundef %4, ptr noundef %5, ptr noundef %6, ptr noundef %7, ptr noundef %8, ptr readnone captures(none) %9) local_unnamed_addr #0 {
  %11 = getelementptr inbounds nuw i8, ptr %0, i64 32
  %12 = load i8, ptr %11, align 1, !tbaa !17
  %13 = ptrtoint ptr %3 to i64
  %14 = and i64 %13, 1
  %.not = icmp eq i64 %14, 0
  br i1 %.not, label %15, label %lean_inc.exit27

15:                                               ; preds = %10
  %.val.i = load i32, ptr %3, align 4, !tbaa !4
  %16 = icmp sgt i32 %.val.i, 0
  br i1 %16, label %17, label %19, !prof !13

17:                                               ; preds = %15
  %18 = add nuw i32 %.val.i, 1
  store i32 %18, ptr %3, align 4, !tbaa !4
  br label %lean_inc.exit27

19:                                               ; preds = %15
  %.not.i = icmp eq i32 %.val.i, 0
  br i1 %.not.i, label %lean_inc.exit27, label %20

20:                                               ; preds = %19
  tail call void @lean_inc_ref_cold(ptr noundef nonnull %3) #7
  br label %lean_inc.exit27

lean_inc.exit27:                                  ; preds = %20, %19, %17, %10
  %21 = ptrtoint ptr %1 to i64
  %22 = and i64 %21, 1
  %.not34 = icmp eq i64 %22, 0
  br i1 %.not34, label %23, label %lean_inc.exit26

23:                                               ; preds = %lean_inc.exit27
  %.val.i28 = load i32, ptr %1, align 4, !tbaa !4
  %24 = icmp sgt i32 %.val.i28, 0
  br i1 %24, label %25, label %27, !prof !13

25:                                               ; preds = %23
  %26 = add nuw i32 %.val.i28, 1
  store i32 %26, ptr %1, align 4, !tbaa !4
  br label %lean_inc.exit26

27:                                               ; preds = %23
  %.not.i29 = icmp eq i32 %.val.i28, 0
  br i1 %.not.i29, label %lean_inc.exit26, label %28

28:                                               ; preds = %27
  tail call void @lean_inc_ref_cold(ptr noundef nonnull %1) #7
  br label %lean_inc.exit26

lean_inc.exit26:                                  ; preds = %28, %27, %25, %lean_inc.exit27
  %29 = tail call ptr @l_Lean_Elab_applyVisibility___rarg(ptr noundef %1, ptr noundef %2, ptr noundef %3, ptr noundef %4, i8 noundef zeroext %12, ptr noundef %5)
  %30 = ptrtoint ptr %8 to i64
  %31 = and i64 %30, 1
  %.not35 = icmp eq i64 %31, 0
  br i1 %.not35, label %32, label %lean_inc.exit

32:                                               ; preds = %lean_inc.exit26
  %.val.i31 = load i32, ptr %8, align 4, !tbaa !4
  %33 = icmp sgt i32 %.val.i31, 0
  br i1 %33, label %34, label %36, !prof !13

34:                                               ; preds = %32
  %35 = add nuw i32 %.val.i31, 1
  store i32 %35, ptr %8, align 4, !tbaa !4
  br label %lean_inc.exit

36:                                               ; preds = %32
  %.not.i32 = icmp eq i32 %.val.i31, 0
  br i1 %.not.i32, label %lean_inc.exit, label %37

37:                                               ; preds = %36
  tail call void @lean_inc_ref_cold(ptr noundef nonnull %8) #7
  br label %lean_inc.exit

lean_inc.exit:                                    ; preds = %37, %36, %34, %lean_inc.exit26
  tail call void @lean_inc_heartbeat() #7
  %38 = tail call noalias ptr @mi_malloc_small(i64 noundef 72) #7
  %39 = icmp eq ptr %38, null
  br i1 %39, label %40, label %lean_alloc_closure.exit

40:                                               ; preds = %lean_inc.exit
  tail call void @lean_internal_panic_out_of_memory() #8
  unreachable

lean_alloc_closure.exit:                          ; preds = %lean_inc.exit
  %41 = zext i8 %12 to i64
  %42 = shl nuw nsw i64 %41, 1
  %43 = or disjoint i64 %42, 1
  %44 = inttoptr i64 %43 to ptr
  %45 = getelementptr inbounds nuw i8, ptr %38, i64 4
  store i32 1, ptr %38, align 4, !tbaa !4
  store i32 -184549304, ptr %45, align 4
  %46 = getelementptr inbounds nuw i8, ptr %38, i64 8
  store ptr @l_Lean_Elab_mkDeclName___rarg___lambda__2___boxed, ptr %46, align 8, !tbaa !9
  %47 = getelementptr inbounds nuw i8, ptr %38, i64 16
  store i16 7, ptr %47, align 8, !tbaa !14
  %48 = getelementptr inbounds nuw i8, ptr %38, i64 18
  store i16 6, ptr %48, align 2, !tbaa !14
  %49 = getelementptr inbounds nuw i8, ptr %38, i64 24
  store ptr %44, ptr %49, align 8, !tbaa !9
  %50 = getelementptr inbounds nuw i8, ptr %38, i64 32
  store ptr %1, ptr %50, align 8, !tbaa !9
  %51 = getelementptr inbounds nuw i8, ptr %38, i64 40
  store ptr %6, ptr %51, align 8, !tbaa !9
  %52 = getelementptr inbounds nuw i8, ptr %38, i64 48
  store ptr %7, ptr %52, align 8, !tbaa !9
  %53 = getelementptr inbounds nuw i8, ptr %38, i64 56
  store ptr %8, ptr %53, align 8, !tbaa !9
  %54 = getelementptr inbounds nuw i8, ptr %38, i64 64
  store ptr %3, ptr %54, align 8, !tbaa !9
  %55 = tail call ptr @lean_apply_4(ptr noundef %8, ptr noundef nonnull inttoptr (i64 1 to ptr), ptr noundef nonnull inttoptr (i64 1 to ptr), ptr noundef %29, ptr noundef nonnull %38) #7
  ret ptr %55
}